ARM GAS  C:\Users\CDP~1.DAR\AppData\Local\Temp\cch6Wag7.s 			page 1


   1              		.cpu cortex-m3
   2              		.arch armv7-m
   3              		.fpu softvfp
   4              		.eabi_attribute 20, 1
   5              		.eabi_attribute 21, 1
   6              		.eabi_attribute 23, 3
   7              		.eabi_attribute 24, 1
   8              		.eabi_attribute 25, 1
   9              		.eabi_attribute 26, 1
  10              		.eabi_attribute 30, 1
  11              		.eabi_attribute 34, 1
  12              		.eabi_attribute 18, 4
  13              		.file	"fm_multiADC.c"
  14              		.text
  15              	.Ltext0:
  16              		.cfi_sections	.debug_frame
  17              		.file 1 "Core/Src/fm_multiADC.c"
  18              		.section	.rodata.FM_V0x_MultiADC_Starts.str1.4,"aMS",%progbits,1
  19              		.align	2
  20              	.LC1:
  21 0000 4C4F475F 		.ascii	"LOG_ADC: Staring ADC function reads signal from sen"
  21      4144433A 
  21      20537461 
  21      72696E67 
  21      20414443 
  22 0033 736F722E 		.ascii	"sor. Mode is %d\015\012\000"
  22      204D6F64 
  22      65206973 
  22      2025640D 
  22      0A00
  23              		.section	.text.FM_V0x_MultiADC_Starts,"ax",%progbits
  24              		.align	1
  25              		.global	FM_V0x_MultiADC_Starts
  26              		.syntax unified
  27              		.thumb
  28              		.thumb_func
  30              	FM_V0x_MultiADC_Starts:
  31              	.LFB69:
   1:Core/Src/fm_multiADC.c **** #include "fm_multiADC.h"
   2:Core/Src/fm_multiADC.c **** 
   3:Core/Src/fm_multiADC.c **** extern void Error_Handler(void);
   4:Core/Src/fm_multiADC.c **** 
   5:Core/Src/fm_multiADC.c **** FM_V0x_multiADC_States_t                 FM_V0x_MultiADC_States;
   6:Core/Src/fm_multiADC.c **** FM_V0x_MultADC_Buffer_t                  __FM_V0x_MultiADC_Buffer = { 0,0,0 };
   7:Core/Src/fm_multiADC.c **** FM_V0x_MultADC_Buffer_t                  *FM_V0x_MultiADC_Buffer;
   8:Core/Src/fm_multiADC.c **** ADC_HandleTypeDef hadc1;
   9:Core/Src/fm_multiADC.c **** FM_V0x_MultiADC_Handle_t                 hadcx; 
  10:Core/Src/fm_multiADC.c **** 
  11:Core/Src/fm_multiADC.c **** ADC_ChannelConfTypeDef sConfig =    {0};
  12:Core/Src/fm_multiADC.c **** 
  13:Core/Src/fm_multiADC.c **** void FM_V0x_MultiADC_Init ( ){
  14:Core/Src/fm_multiADC.c ****     
  15:Core/Src/fm_multiADC.c ****             FM_V0x_MultiADC_States = FM_V0x_MULTI_STATES_TURNS_ON ;
  16:Core/Src/fm_multiADC.c **** 
  17:Core/Src/fm_multiADC.c ****             FM_V0x_MultiADC_Handle_t hadcx = {
  18:Core/Src/fm_multiADC.c ****                 .FM_V0x_MultiADC_Chooses_ADC = FM_V0x_MULTI_STATES_CHANNEL_6,
  19:Core/Src/fm_multiADC.c ****                 .hadc_handle = &hadc1 };
ARM GAS  C:\Users\CDP~1.DAR\AppData\Local\Temp\cch6Wag7.s 			page 2


  20:Core/Src/fm_multiADC.c ****             
  21:Core/Src/fm_multiADC.c ****             printf("LOG_ADC: ADC is initializing. Mode is: %d\r\n", FM_V0x_MultiADC_States);
  22:Core/Src/fm_multiADC.c **** 
  23:Core/Src/fm_multiADC.c ****             FM_V0x_MultiADC_Buffer = &__FM_V0x_MultiADC_Buffer;
  24:Core/Src/fm_multiADC.c ****             FM_V0x_MultiADC_States = FM_V0x_MULTI_STATES_SETTINGS;
  25:Core/Src/fm_multiADC.c ****             printf("LOG_ADC: Settings parameters for ADC. Mode is: %d\r\n", FM_V0x_MULTI_STATES_SET
  26:Core/Src/fm_multiADC.c ****             
  27:Core/Src/fm_multiADC.c ****             hadcx.hadc_handle->Instance = ADC1;
  28:Core/Src/fm_multiADC.c ****             hadcx.hadc_handle->Init.ScanConvMode = ADC_SCAN_DISABLE;
  29:Core/Src/fm_multiADC.c ****             hadcx.hadc_handle->Init.ContinuousConvMode = ENABLE;
  30:Core/Src/fm_multiADC.c ****             hadcx.hadc_handle->Init.DiscontinuousConvMode = DISABLE;
  31:Core/Src/fm_multiADC.c ****             hadcx.hadc_handle->Init.ExternalTrigConv = ADC_SOFTWARE_START;
  32:Core/Src/fm_multiADC.c ****             hadcx.hadc_handle->Init.DataAlign = ADC_DATAALIGN_RIGHT;
  33:Core/Src/fm_multiADC.c ****             hadcx.hadc_handle->Init.NbrOfConversion = 1;
  34:Core/Src/fm_multiADC.c **** 
  35:Core/Src/fm_multiADC.c ****             
  36:Core/Src/fm_multiADC.c ****             if (HAL_ADC_Init(hadcx.hadc_handle) != HAL_OK)
  37:Core/Src/fm_multiADC.c ****             {
  38:Core/Src/fm_multiADC.c ****                 Error_Handler();
  39:Core/Src/fm_multiADC.c ****             }
  40:Core/Src/fm_multiADC.c **** 
  41:Core/Src/fm_multiADC.c ****             FM_V0x_MultiADC_States = FM_V0x_MULTI_STATES_CHANNEL_6;
  42:Core/Src/fm_multiADC.c ****             switch (FM_V0x_MultiADC_States)
  43:Core/Src/fm_multiADC.c ****             {
  44:Core/Src/fm_multiADC.c ****             case FM_V0x_MULTI_STATES_CHANNEL_6:
  45:Core/Src/fm_multiADC.c ****                     sConfig.Channel = ADC_CHANNEL_6;
  46:Core/Src/fm_multiADC.c ****                     sConfig.Rank = ADC_REGULAR_RANK_1;
  47:Core/Src/fm_multiADC.c ****                     sConfig.SamplingTime = ADC_SAMPLETIME_1CYCLE_5;    
  48:Core/Src/fm_multiADC.c ****                     
  49:Core/Src/fm_multiADC.c ****                     if (HAL_ADC_ConfigChannel( hadcx.hadc_handle, &sConfig) != HAL_OK ){
  50:Core/Src/fm_multiADC.c ****                         Error_Handler();
  51:Core/Src/fm_multiADC.c ****                     }
  52:Core/Src/fm_multiADC.c **** 
  53:Core/Src/fm_multiADC.c ****                     printf("LOG_ADC: Settings for ADC1 channel %d\r\n", FM_V0x_MULTI_STATES_CHANNEL
  54:Core/Src/fm_multiADC.c ****                     FM_V0x_MultiADC_Starts(hadcx);
  55:Core/Src/fm_multiADC.c ****                     FM_V0x_MultiADC_Reads_ADC_Signal(hadcx);
  56:Core/Src/fm_multiADC.c ****                     FM_V0x_MultiADC_States = FM_V0x_MULTI_STATES_CHANNEL_7;
  57:Core/Src/fm_multiADC.c ****             case FM_V0x_MULTI_STATES_CHANNEL_7:
  58:Core/Src/fm_multiADC.c ****                     sConfig.Channel = ADC_CHANNEL_7;
  59:Core/Src/fm_multiADC.c ****                     sConfig.Rank = ADC_REGULAR_RANK_1;
  60:Core/Src/fm_multiADC.c ****                     sConfig.SamplingTime = ADC_SAMPLETIME_1CYCLE_5;    
  61:Core/Src/fm_multiADC.c ****                                 
  62:Core/Src/fm_multiADC.c ****                     if (HAL_ADC_ConfigChannel(hadcx.hadc_handle, &sConfig) != HAL_OK ){
  63:Core/Src/fm_multiADC.c ****                         Error_Handler();
  64:Core/Src/fm_multiADC.c ****                     }
  65:Core/Src/fm_multiADC.c ****                     printf("LOG_ADC: Settings for ADC1 channel %d\r\n", FM_V0x_MULTI_STATES_CHANNEL
  66:Core/Src/fm_multiADC.c ****                     FM_V0x_MultiADC_Starts(hadcx);
  67:Core/Src/fm_multiADC.c ****                     FM_V0x_MultiADC_Reads_ADC_Signal(hadcx);
  68:Core/Src/fm_multiADC.c ****                     FM_V0x_MultiADC_States = FM_V0x_MULTI_STATES_CHANNEL_8;
  69:Core/Src/fm_multiADC.c ****             case  FM_V0x_MULTI_STATES_CHANNEL_8:
  70:Core/Src/fm_multiADC.c ****                     sConfig.Channel = ADC_CHANNEL_8;
  71:Core/Src/fm_multiADC.c ****                     sConfig.Rank = ADC_REGULAR_RANK_1;
  72:Core/Src/fm_multiADC.c ****                     sConfig.SamplingTime = ADC_SAMPLETIME_1CYCLE_5;   
  73:Core/Src/fm_multiADC.c ****                                 
  74:Core/Src/fm_multiADC.c ****                     if (HAL_ADC_ConfigChannel(hadcx.hadc_handle, &sConfig) != HAL_OK ){
  75:Core/Src/fm_multiADC.c ****                         Error_Handler();
  76:Core/Src/fm_multiADC.c ****                     } 
ARM GAS  C:\Users\CDP~1.DAR\AppData\Local\Temp\cch6Wag7.s 			page 3


  77:Core/Src/fm_multiADC.c **** 
  78:Core/Src/fm_multiADC.c ****                     printf("LOG_ADC: Settings for ADC1 channel %d\r\n", FM_V0x_MULTI_STATES_CHANNEL
  79:Core/Src/fm_multiADC.c ****                     FM_V0x_MultiADC_Starts(hadcx);
  80:Core/Src/fm_multiADC.c ****                     FM_V0x_MultiADC_Reads_ADC_Signal(hadcx);
  81:Core/Src/fm_multiADC.c ****                     break;
  82:Core/Src/fm_multiADC.c ****             default:
  83:Core/Src/fm_multiADC.c ****                 break;
  84:Core/Src/fm_multiADC.c ****             }
  85:Core/Src/fm_multiADC.c **** }
  86:Core/Src/fm_multiADC.c **** 
  87:Core/Src/fm_multiADC.c **** void FM_V0x_MultiADC_Starts ( FM_V0x_MultiADC_Handle_t hadc ){
  32              		.loc 1 87 62 view -0
  33              		.cfi_startproc
  34              		@ args = 0, pretend = 0, frame = 8
  35              		@ frame_needed = 0, uses_anonymous_args = 0
  36 0000 00B5     		push	{lr}
  37              	.LCFI0:
  38              		.cfi_def_cfa_offset 4
  39              		.cfi_offset 14, -4
  40 0002 83B0     		sub	sp, sp, #12
  41              	.LCFI1:
  42              		.cfi_def_cfa_offset 16
  43 0004 02AB     		add	r3, sp, #8
  44 0006 03E90300 		stmdb	r3, {r0, r1}
  88:Core/Src/fm_multiADC.c **** 
  89:Core/Src/fm_multiADC.c ****              if (HAL_ADC_Start(hadc.hadc_handle) != HAL_OK ){
  45              		.loc 1 89 14 view .LVU1
  46              		.loc 1 89 18 is_stmt 0 view .LVU2
  47 000a FFF7FEFF 		bl	HAL_ADC_Start
  48              	.LVL0:
  49              		.loc 1 89 17 discriminator 1 view .LVU3
  50 000e 40B9     		cbnz	r0, .L4
  51              	.L2:
  90:Core/Src/fm_multiADC.c ****                 // Start Error
  91:Core/Src/fm_multiADC.c ****                 Error_Handler();
  92:Core/Src/fm_multiADC.c ****             }
  93:Core/Src/fm_multiADC.c ****             FM_V0x_MultiADC_States = FM_V0x_MULTI_STATES_IS_STARTING;
  52              		.loc 1 93 13 is_stmt 1 view .LVU4
  53              		.loc 1 93 36 is_stmt 0 view .LVU5
  54 0010 0321     		movs	r1, #3
  55 0012 054B     		ldr	r3, .L5
  56 0014 1970     		strb	r1, [r3]
  94:Core/Src/fm_multiADC.c ****             printf("LOG_ADC: Staring ADC function reads signal from sensor. Mode is %d\r\n",FM_V0x_
  57              		.loc 1 94 13 is_stmt 1 view .LVU6
  58 0016 0548     		ldr	r0, .L5+4
  59 0018 FFF7FEFF 		bl	printf
  60              	.LVL1:
  95:Core/Src/fm_multiADC.c **** 
  96:Core/Src/fm_multiADC.c **** }
  61              		.loc 1 96 1 is_stmt 0 view .LVU7
  62 001c 03B0     		add	sp, sp, #12
  63              	.LCFI2:
  64              		.cfi_remember_state
  65              		.cfi_def_cfa_offset 4
  66              		@ sp needed
  67 001e 5DF804FB 		ldr	pc, [sp], #4
  68              	.L4:
ARM GAS  C:\Users\CDP~1.DAR\AppData\Local\Temp\cch6Wag7.s 			page 4


  69              	.LCFI3:
  70              		.cfi_restore_state
  91:Core/Src/fm_multiADC.c ****             }
  71              		.loc 1 91 17 is_stmt 1 view .LVU8
  72 0022 FFF7FEFF 		bl	Error_Handler
  73              	.LVL2:
  74 0026 F3E7     		b	.L2
  75              	.L6:
  76              		.align	2
  77              	.L5:
  78 0028 00000000 		.word	FM_V0x_MultiADC_States
  79 002c 00000000 		.word	.LC1
  80              		.cfi_endproc
  81              	.LFE69:
  83              		.section	.rodata.FM_V0x_MultiADC_Reads_ADC_Signal.str1.4,"aMS",%progbits,1
  84              		.align	2
  85              	.LC2:
  86 0000 4C4F475F 		.ascii	"LOG_ADC: Reading ADC from channel %d. Value is : %l"
  86      4144433A 
  86      20526561 
  86      64696E67 
  86      20414443 
  87 0033 642E204D 		.ascii	"d. Mode is %d\015\012\000"
  87      6F646520 
  87      69732025 
  87      640D0A00 
  88              		.section	.text.FM_V0x_MultiADC_Reads_ADC_Signal,"ax",%progbits
  89              		.align	1
  90              		.global	FM_V0x_MultiADC_Reads_ADC_Signal
  91              		.syntax unified
  92              		.thumb
  93              		.thumb_func
  95              	FM_V0x_MultiADC_Reads_ADC_Signal:
  96              	.LFB70:
  97:Core/Src/fm_multiADC.c **** 
  98:Core/Src/fm_multiADC.c **** void FM_V0x_MultiADC_Reads_ADC_Signal (FM_V0x_MultiADC_Handle_t hadc ){
  97              		.loc 1 98 71 view -0
  98              		.cfi_startproc
  99              		@ args = 0, pretend = 0, frame = 8
 100              		@ frame_needed = 0, uses_anonymous_args = 0
 101 0000 70B5     		push	{r4, r5, r6, lr}
 102              	.LCFI4:
 103              		.cfi_def_cfa_offset 16
 104              		.cfi_offset 4, -16
 105              		.cfi_offset 5, -12
 106              		.cfi_offset 6, -8
 107              		.cfi_offset 14, -4
 108 0002 82B0     		sub	sp, sp, #8
 109              	.LCFI5:
 110              		.cfi_def_cfa_offset 24
 111 0004 02AB     		add	r3, sp, #8
 112 0006 03E90300 		stmdb	r3, {r0, r1}
  99:Core/Src/fm_multiADC.c **** 
 100:Core/Src/fm_multiADC.c ****             if (HAL_ADC_PollForConversion(hadc.hadc_handle, HAL_MAX_DELAY) == HAL_OK){
 113              		.loc 1 100 13 view .LVU10
 114              		.loc 1 100 17 is_stmt 0 view .LVU11
 115 000a 0446     		mov	r4, r0
ARM GAS  C:\Users\CDP~1.DAR\AppData\Local\Temp\cch6Wag7.s 			page 5


 116 000c 4FF0FF31 		mov	r1, #-1
 117 0010 FFF7FEFF 		bl	HAL_ADC_PollForConversion
 118              	.LVL3:
 119              		.loc 1 100 16 discriminator 1 view .LVU12
 120 0014 08B1     		cbz	r0, .L10
 121              	.L7:
 101:Core/Src/fm_multiADC.c ****                     // Get the ADC value
 102:Core/Src/fm_multiADC.c ****               FM_V0x_MultiADC_Buffer->FM_V0x_Light_Sensor_Buffer  = HAL_ADC_GetValue(hadc.hadc_hand
 103:Core/Src/fm_multiADC.c ****               printf("LOG_ADC: Reading ADC from channel %d. Value is : %ld. Mode is %d\r\n", hadc.F
 104:Core/Src/fm_multiADC.c ****             }
 105:Core/Src/fm_multiADC.c **** }...
 122              		.loc 1 105 1 view .LVU13
 123 0016 02B0     		add	sp, sp, #8
 124              	.LCFI6:
 125              		.cfi_remember_state
 126              		.cfi_def_cfa_offset 16
 127              		@ sp needed
 128 0018 70BD     		pop	{r4, r5, r6, pc}
 129              	.L10:
 130              	.LCFI7:
 131              		.cfi_restore_state
 102:Core/Src/fm_multiADC.c ****               FM_V0x_MultiADC_Buffer->FM_V0x_Light_Sensor_Buffer  = HAL_ADC_GetValue(hadc.hadc_hand
 132              		.loc 1 102 15 is_stmt 1 view .LVU14
 102:Core/Src/fm_multiADC.c ****               FM_V0x_MultiADC_Buffer->FM_V0x_Light_Sensor_Buffer  = HAL_ADC_GetValue(hadc.hadc_hand
 133              		.loc 1 102 37 is_stmt 0 view .LVU15
 134 001a 074D     		ldr	r5, .L11
 135 001c 2E68     		ldr	r6, [r5]
 102:Core/Src/fm_multiADC.c ****               FM_V0x_MultiADC_Buffer->FM_V0x_Light_Sensor_Buffer  = HAL_ADC_GetValue(hadc.hadc_hand
 136              		.loc 1 102 69 view .LVU16
 137 001e 2046     		mov	r0, r4
 138 0020 FFF7FEFF 		bl	HAL_ADC_GetValue
 139              	.LVL4:
 102:Core/Src/fm_multiADC.c ****               FM_V0x_MultiADC_Buffer->FM_V0x_Light_Sensor_Buffer  = HAL_ADC_GetValue(hadc.hadc_hand
 140              		.loc 1 102 67 discriminator 1 view .LVU17
 141 0024 3060     		str	r0, [r6]
 103:Core/Src/fm_multiADC.c ****               printf("LOG_ADC: Reading ADC from channel %d. Value is : %ld. Mode is %d\r\n", hadc.F
 142              		.loc 1 103 15 is_stmt 1 view .LVU18
 103:Core/Src/fm_multiADC.c ****               printf("LOG_ADC: Reading ADC from channel %d. Value is : %ld. Mode is %d\r\n", hadc.F
 143              		.loc 1 103 151 is_stmt 0 view .LVU19
 144 0026 2A68     		ldr	r2, [r5]
 103:Core/Src/fm_multiADC.c ****               printf("LOG_ADC: Reading ADC from channel %d. Value is : %ld. Mode is %d\r\n", hadc.F
 145              		.loc 1 103 15 view .LVU20
 146 0028 0423     		movs	r3, #4
 147 002a 1268     		ldr	r2, [r2]
 148 002c BDF80410 		ldrh	r1, [sp, #4]
 149 0030 0248     		ldr	r0, .L11+4
 150 0032 FFF7FEFF 		bl	printf
 151              	.LVL5:
 152              		.loc 1 105 1 view .LVU21
 153 0036 EEE7     		b	.L7
 154              	.L12:
 155              		.align	2
 156              	.L11:
 157 0038 00000000 		.word	FM_V0x_MultiADC_Buffer
 158 003c 00000000 		.word	.LC2
 159              		.cfi_endproc
 160              	.LFE70:
ARM GAS  C:\Users\CDP~1.DAR\AppData\Local\Temp\cch6Wag7.s 			page 6


 162              		.section	.rodata.FM_V0x_MultiADC_Init.str1.4,"aMS",%progbits,1
 163              		.align	2
 164              	.LC3:
 165 0000 4C4F475F 		.ascii	"LOG_ADC: ADC is initializing. Mode is: %d\015\012\000"
 165      4144433A 
 165      20414443 
 165      20697320 
 165      696E6974 
 166              		.align	2
 167              	.LC4:
 168 002c 4C4F475F 		.ascii	"LOG_ADC: Settings parameters for ADC. Mode is: %d\015"
 168      4144433A 
 168      20536574 
 168      74696E67 
 168      73207061 
 169 005e 0A00     		.ascii	"\012\000"
 170              		.align	2
 171              	.LC5:
 172 0060 4C4F475F 		.ascii	"LOG_ADC: Settings for ADC1 channel %d\015\012\000"
 172      4144433A 
 172      20536574 
 172      74696E67 
 172      7320666F 
 173              		.section	.text.FM_V0x_MultiADC_Init,"ax",%progbits
 174              		.align	1
 175              		.global	FM_V0x_MultiADC_Init
 176              		.syntax unified
 177              		.thumb
 178              		.thumb_func
 180              	FM_V0x_MultiADC_Init:
 181              	.LFB68:
  13:Core/Src/fm_multiADC.c **** void FM_V0x_MultiADC_Init ( ){
 182              		.loc 1 13 30 is_stmt 1 view -0
 183              		.cfi_startproc
 184              		@ args = 0, pretend = 0, frame = 8
 185              		@ frame_needed = 0, uses_anonymous_args = 0
 186 0000 30B5     		push	{r4, r5, lr}
 187              	.LCFI8:
 188              		.cfi_def_cfa_offset 12
 189              		.cfi_offset 4, -12
 190              		.cfi_offset 5, -8
 191              		.cfi_offset 14, -4
 192 0002 83B0     		sub	sp, sp, #12
 193              	.LCFI9:
 194              		.cfi_def_cfa_offset 24
  15:Core/Src/fm_multiADC.c ****             FM_V0x_MultiADC_States = FM_V0x_MULTI_STATES_TURNS_ON ;
 195              		.loc 1 15 13 view .LVU23
  15:Core/Src/fm_multiADC.c ****             FM_V0x_MultiADC_States = FM_V0x_MULTI_STATES_TURNS_ON ;
 196              		.loc 1 15 36 is_stmt 0 view .LVU24
 197 0004 404D     		ldr	r5, .L23
 198 0006 0124     		movs	r4, #1
 199 0008 2C70     		strb	r4, [r5]
  17:Core/Src/fm_multiADC.c ****             FM_V0x_MultiADC_Handle_t hadcx = {
 200              		.loc 1 17 13 is_stmt 1 view .LVU25
  17:Core/Src/fm_multiADC.c ****             FM_V0x_MultiADC_Handle_t hadcx = {
 201              		.loc 1 17 38 is_stmt 0 view .LVU26
 202 000a 404B     		ldr	r3, .L23+4
ARM GAS  C:\Users\CDP~1.DAR\AppData\Local\Temp\cch6Wag7.s 			page 7


 203 000c 93E80300 		ldm	r3, {r0, r1}
 204 0010 02AB     		add	r3, sp, #8
 205 0012 03E90300 		stmdb	r3, {r0, r1}
  21:Core/Src/fm_multiADC.c ****             printf("LOG_ADC: ADC is initializing. Mode is: %d\r\n", FM_V0x_MultiADC_States);
 206              		.loc 1 21 13 is_stmt 1 view .LVU27
 207 0016 2146     		mov	r1, r4
 208 0018 3D48     		ldr	r0, .L23+8
 209 001a FFF7FEFF 		bl	printf
 210              	.LVL6:
  23:Core/Src/fm_multiADC.c ****             FM_V0x_MultiADC_Buffer = &__FM_V0x_MultiADC_Buffer;
 211              		.loc 1 23 13 view .LVU28
  23:Core/Src/fm_multiADC.c ****             FM_V0x_MultiADC_Buffer = &__FM_V0x_MultiADC_Buffer;
 212              		.loc 1 23 36 is_stmt 0 view .LVU29
 213 001e 3D4B     		ldr	r3, .L23+12
 214 0020 3D4A     		ldr	r2, .L23+16
 215 0022 1A60     		str	r2, [r3]
  24:Core/Src/fm_multiADC.c ****             FM_V0x_MultiADC_States = FM_V0x_MULTI_STATES_SETTINGS;
 216              		.loc 1 24 13 is_stmt 1 view .LVU30
  24:Core/Src/fm_multiADC.c ****             FM_V0x_MultiADC_States = FM_V0x_MULTI_STATES_SETTINGS;
 217              		.loc 1 24 36 is_stmt 0 view .LVU31
 218 0024 0221     		movs	r1, #2
 219 0026 2970     		strb	r1, [r5]
  25:Core/Src/fm_multiADC.c ****             printf("LOG_ADC: Settings parameters for ADC. Mode is: %d\r\n", FM_V0x_MULTI_STATES_SET
 220              		.loc 1 25 13 is_stmt 1 view .LVU32
 221 0028 3C48     		ldr	r0, .L23+20
 222 002a FFF7FEFF 		bl	printf
 223              	.LVL7:
  27:Core/Src/fm_multiADC.c ****             hadcx.hadc_handle->Instance = ADC1;
 224              		.loc 1 27 13 view .LVU33
  27:Core/Src/fm_multiADC.c ****             hadcx.hadc_handle->Instance = ADC1;
 225              		.loc 1 27 41 is_stmt 0 view .LVU34
 226 002e 3C48     		ldr	r0, .L23+24
 227 0030 3C4B     		ldr	r3, .L23+28
 228 0032 0360     		str	r3, [r0]
  28:Core/Src/fm_multiADC.c ****             hadcx.hadc_handle->Init.ScanConvMode = ADC_SCAN_DISABLE;
 229              		.loc 1 28 13 is_stmt 1 view .LVU35
  28:Core/Src/fm_multiADC.c ****             hadcx.hadc_handle->Init.ScanConvMode = ADC_SCAN_DISABLE;
 230              		.loc 1 28 50 is_stmt 0 view .LVU36
 231 0034 0023     		movs	r3, #0
 232 0036 8360     		str	r3, [r0, #8]
  29:Core/Src/fm_multiADC.c ****             hadcx.hadc_handle->Init.ContinuousConvMode = ENABLE;
 233              		.loc 1 29 13 is_stmt 1 view .LVU37
  29:Core/Src/fm_multiADC.c ****             hadcx.hadc_handle->Init.ContinuousConvMode = ENABLE;
 234              		.loc 1 29 56 is_stmt 0 view .LVU38
 235 0038 0473     		strb	r4, [r0, #12]
  30:Core/Src/fm_multiADC.c ****             hadcx.hadc_handle->Init.DiscontinuousConvMode = DISABLE;
 236              		.loc 1 30 13 is_stmt 1 view .LVU39
  30:Core/Src/fm_multiADC.c ****             hadcx.hadc_handle->Init.DiscontinuousConvMode = DISABLE;
 237              		.loc 1 30 59 is_stmt 0 view .LVU40
 238 003a 0375     		strb	r3, [r0, #20]
  31:Core/Src/fm_multiADC.c ****             hadcx.hadc_handle->Init.ExternalTrigConv = ADC_SOFTWARE_START;
 239              		.loc 1 31 13 is_stmt 1 view .LVU41
  31:Core/Src/fm_multiADC.c ****             hadcx.hadc_handle->Init.ExternalTrigConv = ADC_SOFTWARE_START;
 240              		.loc 1 31 54 is_stmt 0 view .LVU42
 241 003c 4FF46022 		mov	r2, #917504
 242 0040 C261     		str	r2, [r0, #28]
  32:Core/Src/fm_multiADC.c ****             hadcx.hadc_handle->Init.DataAlign = ADC_DATAALIGN_RIGHT;
ARM GAS  C:\Users\CDP~1.DAR\AppData\Local\Temp\cch6Wag7.s 			page 8


 243              		.loc 1 32 13 is_stmt 1 view .LVU43
  32:Core/Src/fm_multiADC.c ****             hadcx.hadc_handle->Init.DataAlign = ADC_DATAALIGN_RIGHT;
 244              		.loc 1 32 47 is_stmt 0 view .LVU44
 245 0042 4360     		str	r3, [r0, #4]
  33:Core/Src/fm_multiADC.c ****             hadcx.hadc_handle->Init.NbrOfConversion = 1;
 246              		.loc 1 33 13 is_stmt 1 view .LVU45
  33:Core/Src/fm_multiADC.c ****             hadcx.hadc_handle->Init.NbrOfConversion = 1;
 247              		.loc 1 33 53 is_stmt 0 view .LVU46
 248 0044 0461     		str	r4, [r0, #16]
  36:Core/Src/fm_multiADC.c ****             if (HAL_ADC_Init(hadcx.hadc_handle) != HAL_OK)
 249              		.loc 1 36 13 is_stmt 1 view .LVU47
  36:Core/Src/fm_multiADC.c ****             if (HAL_ADC_Init(hadcx.hadc_handle) != HAL_OK)
 250              		.loc 1 36 17 is_stmt 0 view .LVU48
 251 0046 FFF7FEFF 		bl	HAL_ADC_Init
 252              	.LVL8:
  36:Core/Src/fm_multiADC.c ****             if (HAL_ADC_Init(hadcx.hadc_handle) != HAL_OK)
 253              		.loc 1 36 16 discriminator 1 view .LVU49
 254 004a 0028     		cmp	r0, #0
 255 004c 50D1     		bne	.L19
 256              	.L14:
  41:Core/Src/fm_multiADC.c ****             FM_V0x_MultiADC_States = FM_V0x_MULTI_STATES_CHANNEL_6;
 257              		.loc 1 41 13 is_stmt 1 view .LVU50
  41:Core/Src/fm_multiADC.c ****             FM_V0x_MultiADC_States = FM_V0x_MULTI_STATES_CHANNEL_6;
 258              		.loc 1 41 36 is_stmt 0 view .LVU51
 259 004e 0623     		movs	r3, #6
 260 0050 2D4A     		ldr	r2, .L23
 261 0052 1370     		strb	r3, [r2]
  42:Core/Src/fm_multiADC.c ****             switch (FM_V0x_MultiADC_States)
 262              		.loc 1 42 13 is_stmt 1 view .LVU52
  45:Core/Src/fm_multiADC.c ****                     sConfig.Channel = ADC_CHANNEL_6;
 263              		.loc 1 45 21 view .LVU53
  45:Core/Src/fm_multiADC.c ****                     sConfig.Channel = ADC_CHANNEL_6;
 264              		.loc 1 45 37 is_stmt 0 view .LVU54
 265 0054 3449     		ldr	r1, .L23+32
 266 0056 0B60     		str	r3, [r1]
  46:Core/Src/fm_multiADC.c ****                     sConfig.Rank = ADC_REGULAR_RANK_1;
 267              		.loc 1 46 21 is_stmt 1 view .LVU55
  46:Core/Src/fm_multiADC.c ****                     sConfig.Rank = ADC_REGULAR_RANK_1;
 268              		.loc 1 46 34 is_stmt 0 view .LVU56
 269 0058 0123     		movs	r3, #1
 270 005a 4B60     		str	r3, [r1, #4]
  47:Core/Src/fm_multiADC.c ****                     sConfig.SamplingTime = ADC_SAMPLETIME_1CYCLE_5;    
 271              		.loc 1 47 21 is_stmt 1 view .LVU57
  47:Core/Src/fm_multiADC.c ****                     sConfig.SamplingTime = ADC_SAMPLETIME_1CYCLE_5;    
 272              		.loc 1 47 42 is_stmt 0 view .LVU58
 273 005c 0023     		movs	r3, #0
 274 005e 8B60     		str	r3, [r1, #8]
  49:Core/Src/fm_multiADC.c ****                     if (HAL_ADC_ConfigChannel( hadcx.hadc_handle, &sConfig) != HAL_OK ){
 275              		.loc 1 49 21 is_stmt 1 view .LVU59
  49:Core/Src/fm_multiADC.c ****                     if (HAL_ADC_ConfigChannel( hadcx.hadc_handle, &sConfig) != HAL_OK ){
 276              		.loc 1 49 25 is_stmt 0 view .LVU60
 277 0060 2F48     		ldr	r0, .L23+24
 278 0062 FFF7FEFF 		bl	HAL_ADC_ConfigChannel
 279              	.LVL9:
  49:Core/Src/fm_multiADC.c ****                     if (HAL_ADC_ConfigChannel( hadcx.hadc_handle, &sConfig) != HAL_OK ){
 280              		.loc 1 49 24 discriminator 1 view .LVU61
 281 0066 0028     		cmp	r0, #0
ARM GAS  C:\Users\CDP~1.DAR\AppData\Local\Temp\cch6Wag7.s 			page 9


 282 0068 45D1     		bne	.L20
 283              	.L15:
  53:Core/Src/fm_multiADC.c ****                     printf("LOG_ADC: Settings for ADC1 channel %d\r\n", FM_V0x_MULTI_STATES_CHANNEL
 284              		.loc 1 53 21 is_stmt 1 view .LVU62
 285 006a 0621     		movs	r1, #6
 286 006c 2F48     		ldr	r0, .L23+36
 287 006e FFF7FEFF 		bl	printf
 288              	.LVL10:
  54:Core/Src/fm_multiADC.c ****                     FM_V0x_MultiADC_Starts(hadcx);
 289              		.loc 1 54 21 view .LVU63
 290 0072 6C46     		mov	r4, sp
 291 0074 94E80300 		ldm	r4, {r0, r1}
 292 0078 FFF7FEFF 		bl	FM_V0x_MultiADC_Starts
 293              	.LVL11:
  55:Core/Src/fm_multiADC.c ****                     FM_V0x_MultiADC_Reads_ADC_Signal(hadcx);
 294              		.loc 1 55 21 view .LVU64
 295 007c 94E80300 		ldm	r4, {r0, r1}
 296 0080 FFF7FEFF 		bl	FM_V0x_MultiADC_Reads_ADC_Signal
 297              	.LVL12:
  56:Core/Src/fm_multiADC.c ****                     FM_V0x_MultiADC_States = FM_V0x_MULTI_STATES_CHANNEL_7;
 298              		.loc 1 56 21 view .LVU65
  56:Core/Src/fm_multiADC.c ****                     FM_V0x_MultiADC_States = FM_V0x_MULTI_STATES_CHANNEL_7;
 299              		.loc 1 56 44 is_stmt 0 view .LVU66
 300 0084 0723     		movs	r3, #7
 301 0086 204A     		ldr	r2, .L23
 302 0088 1370     		strb	r3, [r2]
  58:Core/Src/fm_multiADC.c ****                     sConfig.Channel = ADC_CHANNEL_7;
 303              		.loc 1 58 21 is_stmt 1 view .LVU67
  58:Core/Src/fm_multiADC.c ****                     sConfig.Channel = ADC_CHANNEL_7;
 304              		.loc 1 58 37 is_stmt 0 view .LVU68
 305 008a 2749     		ldr	r1, .L23+32
 306 008c 0B60     		str	r3, [r1]
  59:Core/Src/fm_multiADC.c ****                     sConfig.Rank = ADC_REGULAR_RANK_1;
 307              		.loc 1 59 21 is_stmt 1 view .LVU69
  59:Core/Src/fm_multiADC.c ****                     sConfig.Rank = ADC_REGULAR_RANK_1;
 308              		.loc 1 59 34 is_stmt 0 view .LVU70
 309 008e 0123     		movs	r3, #1
 310 0090 4B60     		str	r3, [r1, #4]
  60:Core/Src/fm_multiADC.c ****                     sConfig.SamplingTime = ADC_SAMPLETIME_1CYCLE_5;    
 311              		.loc 1 60 21 is_stmt 1 view .LVU71
  60:Core/Src/fm_multiADC.c ****                     sConfig.SamplingTime = ADC_SAMPLETIME_1CYCLE_5;    
 312              		.loc 1 60 42 is_stmt 0 view .LVU72
 313 0092 0023     		movs	r3, #0
 314 0094 8B60     		str	r3, [r1, #8]
  62:Core/Src/fm_multiADC.c ****                     if (HAL_ADC_ConfigChannel(hadcx.hadc_handle, &sConfig) != HAL_OK ){
 315              		.loc 1 62 21 is_stmt 1 view .LVU73
  62:Core/Src/fm_multiADC.c ****                     if (HAL_ADC_ConfigChannel(hadcx.hadc_handle, &sConfig) != HAL_OK ){
 316              		.loc 1 62 25 is_stmt 0 view .LVU74
 317 0096 2248     		ldr	r0, .L23+24
 318 0098 FFF7FEFF 		bl	HAL_ADC_ConfigChannel
 319              	.LVL13:
  62:Core/Src/fm_multiADC.c ****                     if (HAL_ADC_ConfigChannel(hadcx.hadc_handle, &sConfig) != HAL_OK ){
 320              		.loc 1 62 24 discriminator 1 view .LVU75
 321 009c 70BB     		cbnz	r0, .L21
 322              	.L16:
  65:Core/Src/fm_multiADC.c ****                     printf("LOG_ADC: Settings for ADC1 channel %d\r\n", FM_V0x_MULTI_STATES_CHANNEL
 323              		.loc 1 65 21 is_stmt 1 view .LVU76
ARM GAS  C:\Users\CDP~1.DAR\AppData\Local\Temp\cch6Wag7.s 			page 10


 324 009e 0721     		movs	r1, #7
 325 00a0 2248     		ldr	r0, .L23+36
 326 00a2 FFF7FEFF 		bl	printf
 327              	.LVL14:
  66:Core/Src/fm_multiADC.c ****                     FM_V0x_MultiADC_Starts(hadcx);
 328              		.loc 1 66 21 view .LVU77
 329 00a6 6C46     		mov	r4, sp
 330 00a8 94E80300 		ldm	r4, {r0, r1}
 331 00ac FFF7FEFF 		bl	FM_V0x_MultiADC_Starts
 332              	.LVL15:
  67:Core/Src/fm_multiADC.c ****                     FM_V0x_MultiADC_Reads_ADC_Signal(hadcx);
 333              		.loc 1 67 21 view .LVU78
 334 00b0 94E80300 		ldm	r4, {r0, r1}
 335 00b4 FFF7FEFF 		bl	FM_V0x_MultiADC_Reads_ADC_Signal
 336              	.LVL16:
  68:Core/Src/fm_multiADC.c ****                     FM_V0x_MultiADC_States = FM_V0x_MULTI_STATES_CHANNEL_8;
 337              		.loc 1 68 21 view .LVU79
  68:Core/Src/fm_multiADC.c ****                     FM_V0x_MultiADC_States = FM_V0x_MULTI_STATES_CHANNEL_8;
 338              		.loc 1 68 44 is_stmt 0 view .LVU80
 339 00b8 0823     		movs	r3, #8
 340 00ba 134A     		ldr	r2, .L23
 341 00bc 1370     		strb	r3, [r2]
  70:Core/Src/fm_multiADC.c ****                     sConfig.Channel = ADC_CHANNEL_8;
 342              		.loc 1 70 21 is_stmt 1 view .LVU81
  70:Core/Src/fm_multiADC.c ****                     sConfig.Channel = ADC_CHANNEL_8;
 343              		.loc 1 70 37 is_stmt 0 view .LVU82
 344 00be 1A49     		ldr	r1, .L23+32
 345 00c0 0B60     		str	r3, [r1]
  71:Core/Src/fm_multiADC.c ****                     sConfig.Rank = ADC_REGULAR_RANK_1;
 346              		.loc 1 71 21 is_stmt 1 view .LVU83
  71:Core/Src/fm_multiADC.c ****                     sConfig.Rank = ADC_REGULAR_RANK_1;
 347              		.loc 1 71 34 is_stmt 0 view .LVU84
 348 00c2 0123     		movs	r3, #1
 349 00c4 4B60     		str	r3, [r1, #4]
  72:Core/Src/fm_multiADC.c ****                     sConfig.SamplingTime = ADC_SAMPLETIME_1CYCLE_5;   
 350              		.loc 1 72 21 is_stmt 1 view .LVU85
  72:Core/Src/fm_multiADC.c ****                     sConfig.SamplingTime = ADC_SAMPLETIME_1CYCLE_5;   
 351              		.loc 1 72 42 is_stmt 0 view .LVU86
 352 00c6 0023     		movs	r3, #0
 353 00c8 8B60     		str	r3, [r1, #8]
  74:Core/Src/fm_multiADC.c ****                     if (HAL_ADC_ConfigChannel(hadcx.hadc_handle, &sConfig) != HAL_OK ){
 354              		.loc 1 74 21 is_stmt 1 view .LVU87
  74:Core/Src/fm_multiADC.c ****                     if (HAL_ADC_ConfigChannel(hadcx.hadc_handle, &sConfig) != HAL_OK ){
 355              		.loc 1 74 25 is_stmt 0 view .LVU88
 356 00ca 1548     		ldr	r0, .L23+24
 357 00cc FFF7FEFF 		bl	HAL_ADC_ConfigChannel
 358              	.LVL17:
  74:Core/Src/fm_multiADC.c ****                     if (HAL_ADC_ConfigChannel(hadcx.hadc_handle, &sConfig) != HAL_OK ){
 359              		.loc 1 74 24 discriminator 1 view .LVU89
 360 00d0 B8B9     		cbnz	r0, .L22
 361              	.L17:
  78:Core/Src/fm_multiADC.c ****                     printf("LOG_ADC: Settings for ADC1 channel %d\r\n", FM_V0x_MULTI_STATES_CHANNEL
 362              		.loc 1 78 21 is_stmt 1 view .LVU90
 363 00d2 0821     		movs	r1, #8
 364 00d4 1548     		ldr	r0, .L23+36
 365 00d6 FFF7FEFF 		bl	printf
 366              	.LVL18:
ARM GAS  C:\Users\CDP~1.DAR\AppData\Local\Temp\cch6Wag7.s 			page 11


  79:Core/Src/fm_multiADC.c ****                     FM_V0x_MultiADC_Starts(hadcx);
 367              		.loc 1 79 21 view .LVU91
 368 00da 6C46     		mov	r4, sp
 369 00dc 94E80300 		ldm	r4, {r0, r1}
 370 00e0 FFF7FEFF 		bl	FM_V0x_MultiADC_Starts
 371              	.LVL19:
  80:Core/Src/fm_multiADC.c ****                     FM_V0x_MultiADC_Reads_ADC_Signal(hadcx);
 372              		.loc 1 80 21 view .LVU92
 373 00e4 94E80300 		ldm	r4, {r0, r1}
 374 00e8 FFF7FEFF 		bl	FM_V0x_MultiADC_Reads_ADC_Signal
 375              	.LVL20:
  81:Core/Src/fm_multiADC.c ****                     break;
 376              		.loc 1 81 21 view .LVU93
  85:Core/Src/fm_multiADC.c **** }
 377              		.loc 1 85 1 is_stmt 0 view .LVU94
 378 00ec 03B0     		add	sp, sp, #12
 379              	.LCFI10:
 380              		.cfi_remember_state
 381              		.cfi_def_cfa_offset 12
 382              		@ sp needed
 383 00ee 30BD     		pop	{r4, r5, pc}
 384              	.L19:
 385              	.LCFI11:
 386              		.cfi_restore_state
  38:Core/Src/fm_multiADC.c ****                 Error_Handler();
 387              		.loc 1 38 17 is_stmt 1 view .LVU95
 388 00f0 FFF7FEFF 		bl	Error_Handler
 389              	.LVL21:
 390 00f4 ABE7     		b	.L14
 391              	.L20:
  50:Core/Src/fm_multiADC.c ****                         Error_Handler();
 392              		.loc 1 50 25 view .LVU96
 393 00f6 FFF7FEFF 		bl	Error_Handler
 394              	.LVL22:
 395 00fa B6E7     		b	.L15
 396              	.L21:
  63:Core/Src/fm_multiADC.c ****                         Error_Handler();
 397              		.loc 1 63 25 view .LVU97
 398 00fc FFF7FEFF 		bl	Error_Handler
 399              	.LVL23:
 400 0100 CDE7     		b	.L16
 401              	.L22:
  75:Core/Src/fm_multiADC.c ****                         Error_Handler();
 402              		.loc 1 75 25 view .LVU98
 403 0102 FFF7FEFF 		bl	Error_Handler
 404              	.LVL24:
 405 0106 E4E7     		b	.L17
 406              	.L24:
 407              		.align	2
 408              	.L23:
 409 0108 00000000 		.word	FM_V0x_MultiADC_States
 410 010c 00000000 		.word	.LANCHOR0
 411 0110 00000000 		.word	.LC3
 412 0114 00000000 		.word	FM_V0x_MultiADC_Buffer
 413 0118 00000000 		.word	__FM_V0x_MultiADC_Buffer
 414 011c 2C000000 		.word	.LC4
 415 0120 00000000 		.word	hadc1
ARM GAS  C:\Users\CDP~1.DAR\AppData\Local\Temp\cch6Wag7.s 			page 12


 416 0124 00240140 		.word	1073816576
 417 0128 00000000 		.word	sConfig
 418 012c 60000000 		.word	.LC5
 419              		.cfi_endproc
 420              	.LFE68:
 422              		.global	sConfig
 423              		.section	.bss.sConfig,"aw",%nobits
 424              		.align	2
 427              	sConfig:
 428 0000 00000000 		.space	12
 428      00000000 
 428      00000000 
 429              		.global	hadcx
 430              		.section	.bss.hadcx,"aw",%nobits
 431              		.align	2
 434              	hadcx:
 435 0000 00000000 		.space	8
 435      00000000 
 436              		.global	hadc1
 437              		.section	.bss.hadc1,"aw",%nobits
 438              		.align	2
 441              	hadc1:
 442 0000 00000000 		.space	48
 442      00000000 
 442      00000000 
 442      00000000 
 442      00000000 
 443              		.global	FM_V0x_MultiADC_Buffer
 444              		.section	.bss.FM_V0x_MultiADC_Buffer,"aw",%nobits
 445              		.align	2
 448              	FM_V0x_MultiADC_Buffer:
 449 0000 00000000 		.space	4
 450              		.global	__FM_V0x_MultiADC_Buffer
 451              		.section	.bss.__FM_V0x_MultiADC_Buffer,"aw",%nobits
 452              		.align	2
 455              	__FM_V0x_MultiADC_Buffer:
 456 0000 00000000 		.space	12
 456      00000000 
 456      00000000 
 457              		.global	FM_V0x_MultiADC_States
 458              		.section	.bss.FM_V0x_MultiADC_States,"aw",%nobits
 461              	FM_V0x_MultiADC_States:
 462 0000 00       		.space	1
 463              		.section	.rodata
 464              		.align	2
 465              		.set	.LANCHOR0,. + 0
 466              	.LC0:
 467 0000 00000000 		.word	hadc1
 468 0004 0600     		.short	6
 469 0006 0000     		.space	2
 470              		.text
 471              	.Letext0:
 472              		.file 2 "C:/Program Files (x86)/Arm GNU Toolchain arm-none-eabi/13.2 Rel1/arm-none-eabi/include/ma
 473              		.file 3 "C:/Program Files (x86)/Arm GNU Toolchain arm-none-eabi/13.2 Rel1/arm-none-eabi/include/sy
 474              		.file 4 "Drivers/CMSIS/Device/ST/STM32F1xx/Include/stm32f103xb.h"
 475              		.file 5 "Drivers/CMSIS/Device/ST/STM32F1xx/Include/stm32f1xx.h"
 476              		.file 6 "Drivers/STM32F1xx_HAL_Driver/Inc/stm32f1xx_hal_def.h"
ARM GAS  C:\Users\CDP~1.DAR\AppData\Local\Temp\cch6Wag7.s 			page 13


 477              		.file 7 "Drivers/STM32F1xx_HAL_Driver/Inc/stm32f1xx_hal_dma.h"
 478              		.file 8 "Drivers/STM32F1xx_HAL_Driver/Inc/stm32f1xx_hal_adc.h"
 479              		.file 9 "Core/Inc/fm_multiADC.h"
 480              		.file 10 "C:/Program Files (x86)/Arm GNU Toolchain arm-none-eabi/13.2 Rel1/arm-none-eabi/include/s
ARM GAS  C:\Users\CDP~1.DAR\AppData\Local\Temp\cch6Wag7.s 			page 14

